Certificate:
    Data:
        Version: 3 (0x2)
        Serial Number: 2 (0x2)
    Signature Algorithm: sha1WithRSAEncryption
        Issuer: C=US, ST=CA, L=Moreno Valley, O=Haro, OU=Media, CN=RaspberryPi/name=RaspiVPN
        Validity
            Not Before: Nov 25 23:28:32 2015 GMT
            Not After : Nov 22 23:28:32 2025 GMT
        Subject: C=US, ST=CA, L=Moreno Valley, O=Haro, OU=Media, CN=David/name=David/emailAddress=david.haro@me.com
        Subject Public Key Info:
            Public Key Algorithm: rsaEncryption
                Public-Key: (2048 bit)
                Modulus:
                    00:c0:e8:ce:3a:81:22:a9:0b:b6:6c:64:73:7f:9b:
                    a1:27:4a:12:24:5c:50:9a:2a:d0:be:87:09:6f:02:
                    a1:3a:b6:13:39:85:49:92:10:73:fd:75:56:f0:56:
                    16:63:57:21:7f:e6:9a:73:44:64:e7:13:29:c2:dd:
                    c9:a7:2c:50:b4:e7:6b:e6:1f:d7:50:ab:d9:4c:49:
                    e4:06:a2:f2:9a:c2:fd:fc:06:e6:37:6a:7f:fd:eb:
                    ae:2f:3f:85:6c:d5:cb:1b:8a:84:61:33:c1:13:21:
                    b0:cd:81:91:e6:d8:d3:35:a5:3b:e0:22:81:9a:8a:
                    45:a6:67:06:05:20:d0:c9:12:c1:98:ec:1b:f6:cc:
                    1f:70:f7:f9:47:9d:97:d6:cb:56:51:40:aa:82:e6:
                    94:70:e4:3e:4b:40:3b:b5:15:d4:45:e5:fd:7e:85:
                    2d:ef:40:4a:cd:ad:8f:9f:7a:00:2a:f6:c7:f2:85:
                    16:55:0b:c5:91:ca:6f:7d:a9:04:0c:21:67:c7:26:
                    15:d5:f6:d4:fa:cb:57:21:f9:b0:b7:99:fd:8a:57:
                    2b:5e:73:16:1a:7b:1a:e7:c7:18:6c:df:75:f8:47:
                    0f:c0:fa:44:15:cb:69:c9:eb:72:7e:76:03:55:3d:
                    1a:64:a5:b3:3f:b3:65:d8:25:b8:1b:8b:f3:68:fb:
                    bd:b5
                Exponent: 65537 (0x10001)
        X509v3 extensions:
            X509v3 Basic Constraints: 
                CA:FALSE
            Netscape Comment: 
                Easy-RSA Generated Certificate
            X509v3 Subject Key Identifier: 
                F3:BE:A1:D5:DA:EB:4A:B6:90:88:C5:1C:45:4E:B9:F0:A5:1D:80:AC
            X509v3 Authority Key Identifier: 
                keyid:B2:31:49:48:E0:4E:C6:5B:B2:66:1F:C6:9C:88:B9:13:11:E8:0D:F7
                DirName:/C=US/ST=CA/L=Moreno Valley/O=Haro/OU=Media/CN=RaspberryPi/name=RaspiVPN
                serial:9A:40:DC:41:A2:BA:27:AC

            X509v3 Extended Key Usage: 
                TLS Web Client Authentication
            X509v3 Key Usage: 
                Digital Signature
    Signature Algorithm: sha1WithRSAEncryption
         52:84:8d:66:7f:53:e2:d0:0f:be:95:e8:d9:c5:89:2c:81:da:
         69:08:23:cb:26:54:35:b2:41:34:70:27:c2:1b:3a:43:98:28:
         de:a5:1d:b6:5e:62:27:da:3b:d7:3f:7a:4c:6d:ff:35:45:4a:
         8b:89:f5:11:e5:35:0b:32:8c:69:7f:42:ff:3b:16:b7:82:48:
         77:26:1b:33:3c:da:09:b1:0c:c7:bb:8b:fd:a2:39:8d:a6:b2:
         c2:e9:21:5b:fe:8a:b1:65:f3:6a:cb:e0:9f:f6:8a:fb:aa:c2:
         85:8e:25:b7:f5:4c:d2:1b:45:d9:14:0f:ec:c6:fe:cd:2a:8a:
         3b:96:5c:b4:3c:62:52:de:da:8b:cb:18:3d:1e:d2:42:eb:c3:
         70:cb:05:15:ac:1c:94:a0:d9:5d:9a:7f:17:84:be:fb:4b:7b:
         6e:2c:dd:00:bb:1a:bd:6f:7a:45:84:2c:c3:f7:f4:dd:11:ec:
         ea:f8:5f:e7:48:34:15:26:28:77:86:1c:fe:a5:88:3c:ff:c4:
         35:69:ed:b7:0b:68:b3:9e:3b:68:2a:b7:c4:02:92:d4:6f:6d:
         1a:57:f5:c0:9b:f3:3c:0e:c3:65:3f:9f:c8:77:23:e1:51:52:
         e7:47:cf:c0:b7:bf:dc:fd:73:3d:ca:92:7a:57:8d:02:3f:86:
         bd:b0:11:5d
-----BEGIN CERTIFICATE-----
MIIEuTCCA6GgAwIBAgIBAjANBgkqhkiG9w0BAQUFADB6MQswCQYDVQQGEwJVUzEL
MAkGA1UECBMCQ0ExFjAUBgNVBAcTDU1vcmVubyBWYWxsZXkxDTALBgNVBAoTBEhh
cm8xDjAMBgNVBAsTBU1lZGlhMRQwEgYDVQQDEwtSYXNwYmVycnlQaTERMA8GA1UE
KRMIUmFzcGlWUE4wHhcNMTUxMTI1MjMyODMyWhcNMjUxMTIyMjMyODMyWjCBkzEL
MAkGA1UEBhMCVVMxCzAJBgNVBAgTAkNBMRYwFAYDVQQHEw1Nb3Jlbm8gVmFsbGV5
MQ0wCwYDVQQKEwRIYXJvMQ4wDAYDVQQLEwVNZWRpYTEOMAwGA1UEAxMFRGF2aWQx
DjAMBgNVBCkTBURhdmlkMSAwHgYJKoZIhvcNAQkBFhFkYXZpZC5oYXJvQG1lLmNv
bTCCASIwDQYJKoZIhvcNAQEBBQADggEPADCCAQoCggEBAMDozjqBIqkLtmxkc3+b
oSdKEiRcUJoq0L6HCW8CoTq2EzmFSZIQc/11VvBWFmNXIX/mmnNEZOcTKcLdyacs
ULTna+Yf11Cr2UxJ5Aai8prC/fwG5jdqf/3rri8/hWzVyxuKhGEzwRMhsM2BkebY
0zWlO+AigZqKRaZnBgUg0MkSwZjsG/bMH3D3+Uedl9bLVlFAqoLmlHDkPktAO7UV
1EXl/X6FLe9ASs2tj596ACr2x/KFFlULxZHKb32pBAwhZ8cmFdX21PrLVyH5sLeZ
/YpXK15zFhp7GufHGGzfdfhHD8D6RBXLacnrcn52A1U9GmSlsz+zZdgluBuL82j7
vbUCAwEAAaOCAS4wggEqMAkGA1UdEwQCMAAwLQYJYIZIAYb4QgENBCAWHkVhc3kt
UlNBIEdlbmVyYXRlZCBDZXJ0aWZpY2F0ZTAdBgNVHQ4EFgQU876h1drrSraQiMUc
RU658KUdgKwwgawGA1UdIwSBpDCBoYAUsjFJSOBOxluyZh/GnIi5ExHoDfehfqR8
MHoxCzAJBgNVBAYTAlVTMQswCQYDVQQIEwJDQTEWMBQGA1UEBxMNTW9yZW5vIFZh
bGxleTENMAsGA1UEChMESGFybzEOMAwGA1UECxMFTWVkaWExFDASBgNVBAMTC1Jh
c3BiZXJyeVBpMREwDwYDVQQpEwhSYXNwaVZQToIJAJpA3EGiuiesMBMGA1UdJQQM
MAoGCCsGAQUFBwMCMAsGA1UdDwQEAwIHgDANBgkqhkiG9w0BAQUFAAOCAQEAUoSN
Zn9T4tAPvpXo2cWJLIHaaQgjyyZUNbJBNHAnwhs6Q5go3qUdtl5iJ9o71z96TG3/
NUVKi4n1EeU1CzKMaX9C/zsWt4JIdyYbMzzaCbEMx7uL/aI5jaaywukhW/6KsWXz
asvgn/aK+6rChY4lt/VM0htF2RQP7Mb+zSqKO5ZctDxiUt7ai8sYPR7SQuvDcMsF
FawclKDZXZp/F4S++0t7bizdALsavW96RYQsw/f03RHs6vhf50g0FSYod4Yc/qWI
PP/ENWnttwtos547aCq3xAKS1G9tGlf1wJvzPA7DZT+fyHcj4VFS50fPwLe/3P1z
PcqSeleNAj+GvbARXQ==
-----END CERTIFICATE-----
